target datalayout = "e-m:e-p270:32:32-p271:32:32-p272:64:64-i64:64-i128:128-f80:128-n8:16:32:64-S128"
target triple = "x86_64-pc-linux-gnu"

%struct.sigaction = type { %union.anon.0, %struct.__sigset_t, i32, ptr }
%union.anon.0 = type { ptr }
%struct.__sigset_t = type { [16 x i64] }

@.str.6 = private unnamed_addr constant [15 x i8] c"ARCH_AVOID_JIT\00", align 1

; Function Attrs: mustprogress nounwind uwtable
define internal noundef zeroext i1 @_ZN32pxrInternal_v0_24__pxrReserved__12_GLOBAL__N_113_ArchAvoidJITEv() #6 {
  %1 = call ptr @getenv(ptr noundef @.str.6) #10
  %2 = icmp ne ptr %1, null
  ret i1 %2
}

; Function Attrs: mustprogress noreturn uwtable
define void @_ZN32pxrInternal_v0_24__pxrReserved__9ArchAbortEb(i1 noundef zeroext %0) #7 {
  %2 = alloca i8, align 1
  %3 = alloca %struct.sigaction, align 8
  %4 = zext i1 %0 to i8
  store i8 %4, ptr %2, align 1
  %5 = call noundef zeroext i1 @_ZN32pxrInternal_v0_24__pxrReserved__12_GLOBAL__N_113_ArchAvoidJITEv()
  br i1 %5, label %6, label %8

6:                                                ; preds = %1
  %7 = call noundef zeroext i1 @_ZN32pxrInternal_v0_24__pxrReserved__22ArchDebuggerIsAttachedEv()
  br i1 %7, label %8, label %18

8:                                                ; preds = %6, %1
  %9 = load i8, ptr %2, align 1
  %10 = trunc i8 %9 to i1
  br i1 %10, label %17, label %11

11:                                               ; preds = %8
  %12 = getelementptr inbounds nuw %struct.sigaction, ptr %3, i32 0, i32 0
  store ptr null, ptr %12, align 8
  %13 = getelementptr inbounds nuw %struct.sigaction, ptr %3, i32 0, i32 2
  store i32 0, ptr %13, align 8
  %14 = getelementptr inbounds nuw %struct.sigaction, ptr %3, i32 0, i32 1
  %15 = call i32 @sigemptyset(ptr noundef %14) #10
  %16 = call i32 @sigaction(i32 noundef 6, ptr noundef %3, ptr noundef null) #10
  br label %17

17:                                               ; preds = %11, %8
  call void @abort() #14
  unreachable

18:                                               ; preds = %6
  call void @_exit(i32 noundef 134) #12
  unreachable
}