; Function Attrs: mustprogress noreturn uwtable
define void @_ZN32pxrInternal_v0_24__pxrReserved__9ArchAbortEb(i1 noundef zeroext %0) local_unnamed_addr #12 {
  %2 = alloca %struct.sigaction, align 8
  %3 = tail call ptr @getenv(ptr noundef nonnull @.str.6) #17
  %.not = icmp eq ptr %3, null
  br i1 %.not, label %6, label %4

4:                                                ; preds = %1
  %5 = tail call noundef zeroext i1 @_ZN32pxrInternal_v0_24__pxrReserved__22ArchDebuggerIsAttachedEv()
  br i1 %5, label %6, label %13

6:                                                ; preds = %4, %1
  br i1 %0, label %12, label %7

7:                                                ; preds = %6
  store ptr null, ptr %2, align 8
  %8 = getelementptr inbounds nuw i8, ptr %2, i64 136
  store i32 0, ptr %8, align 8
  %9 = getelementptr inbounds nuw i8, ptr %2, i64 8
  %10 = call i32 @sigemptyset(ptr noundef nonnull %9) #17
  %11 = call i32 @sigaction(i32 noundef 6, ptr noundef nonnull %2, ptr noundef null) #17
  br label %12

12:                                               ; preds = %7, %6
  call void @abort() #21
  unreachable

13:                                               ; preds = %4
  tail call void @_exit(i32 noundef 134) #19
  unreachable
}